target datalayout = "e-m:e-p270:32:32-p271:32:32-p272:64:64-i64:64-i128:128-f80:128-n8:16:32:64-S128"
target triple = "x86_64-pc-linux-gnu"

%"class.spacer::unsat_core_plugin" = type { ptr, ptr, ptr }
%class.vector.31 = type { ptr }
%class.rational = type { %class.mpq }
%class.mpq = type { %class.mpz, %class.mpz }
%class.mpz = type { i32, i8, ptr }
%"struct.std::pair" = type { %class.rational, ptr }
%class.svector.22 = type { %class.vector.23 }
%class.vector.23 = type { ptr }
%class.obj_ref = type { ptr, ptr }
%class.ast = type { i32, i32, i32, i32 }
%"class.smt::farkas_util" = type { ptr, %class.arith_util, %class.ref_vector.45, %class.vector.50, %class.rational, i8, i32, %class.svector.22, %class.svector.22, %class.svector.22, %class.svector.22, %class.svector.22 }
%class.arith_util = type { ptr, ptr }
%class.ref_vector.45 = type { %class.ref_vector_core.46 }
%class.ref_vector_core.46 = type { %class.ref_manager_wrapper.47, %class.ptr_vector.48 }
%class.ref_manager_wrapper.47 = type { ptr }
%class.ptr_vector.48 = type { %class.vector.49 }
%class.vector.49 = type { ptr }
%class.vector.50 = type { ptr }

; Function Attrs: mustprogress nounwind uwtable
define linkonce_odr hidden void @_ZN3ast7inc_refEv(ptr noundef nonnull align 4 dereferenceable(16) %0) #5 comdat align 2 {
  %2 = alloca ptr, align 8
  store ptr %0, ptr %2, align 8, !tbaa !102
  %3 = load ptr, ptr %2, align 8
  %4 = getelementptr inbounds nuw %class.ast, ptr %3, i32 0, i32 2
  %5 = load i32, ptr %4, align 4, !tbaa !358
  %6 = add i32 %5, 1
  store i32 %6, ptr %4, align 4, !tbaa !358
  ret void
}

; Function Attrs: mustprogress uwtable
define linkonce_odr hidden void @_ZN11ast_manager7inc_refEP3ast(ptr noundef nonnull align 8 dereferenceable(976) %0, ptr noundef %1) #4 comdat align 2 {
  %3 = alloca ptr, align 8
  %4 = alloca ptr, align 8
  store ptr %0, ptr %3, align 8, !tbaa !12
  store ptr %1, ptr %4, align 8, !tbaa !102
  %5 = load ptr, ptr %4, align 8, !tbaa !102
  %6 = icmp ne ptr %5, null
  br i1 %6, label %7, label %9

7:                                                ; preds = %2
  %8 = load ptr, ptr %4, align 8, !tbaa !102
  call void @_ZN3ast7inc_refEv(ptr noundef nonnull align 4 dereferenceable(16) %8)
  br label %9

9:                                                ; preds = %7, %2
  ret void
}

; Function Attrs: mustprogress uwtable
define linkonce_odr hidden void @_ZN7obj_refI4expr11ast_managerE7inc_refEv(ptr noundef nonnull align 8 dereferenceable(16) %0) #4 comdat align 2 {
  %2 = alloca ptr, align 8
  store ptr %0, ptr %2, align 8, !tbaa !122
  %3 = load ptr, ptr %2, align 8
  %4 = getelementptr inbounds nuw %class.obj_ref, ptr %3, i32 0, i32 0
  %5 = load ptr, ptr %4, align 8, !tbaa !124
  %6 = icmp ne ptr %5, null
  br i1 %6, label %7, label %12

7:                                                ; preds = %1
  %8 = getelementptr inbounds nuw %class.obj_ref, ptr %3, i32 0, i32 1
  %9 = load ptr, ptr %8, align 8, !tbaa !357
  %10 = getelementptr inbounds nuw %class.obj_ref, ptr %3, i32 0, i32 0
  %11 = load ptr, ptr %10, align 8, !tbaa !124
  call void @_ZN11ast_manager7inc_refEP3ast(ptr noundef nonnull align 8 dereferenceable(976) %9, ptr noundef %11)
  br label %12

12:                                               ; preds = %7, %1
  ret void
}

; Function Attrs: mustprogress nounwind uwtable
define linkonce_odr hidden noundef i32 @_ZNK6vectorISt4pairI8rationalP3appELb1EjE4sizeEv(ptr noundef nonnull align 8 dereferenceable(8) %0) #5 comdat align 2 {
  %2 = alloca i32, align 4
  %3 = alloca ptr, align 8
  store ptr %0, ptr %3, align 8, !tbaa !83
  %4 = load ptr, ptr %3, align 8
  %5 = getelementptr inbounds nuw %class.vector.31, ptr %4, i32 0, i32 0
  %6 = load ptr, ptr %5, align 8, !tbaa !85
  %7 = icmp eq ptr %6, null
  br i1 %7, label %8, label %9

8:                                                ; preds = %1
  store i32 0, ptr %2, align 4
  br label %14

9:                                                ; preds = %1
  %10 = getelementptr inbounds nuw %class.vector.31, ptr %4, i32 0, i32 0
  %11 = load ptr, ptr %10, align 8, !tbaa !85
  %12 = getelementptr inbounds i32, ptr %11, i64 -1
  %13 = load i32, ptr %12, align 4, !tbaa !48
  store i32 %13, ptr %2, align 4
  br label %14

14:                                               ; preds = %9, %8
  %15 = load i32, ptr %2, align 4
  ret i32 %15
}

; Function Attrs: mustprogress uwtable
define linkonce_odr hidden void @_ZN7obj_refI4expr11ast_managerEC2EPS0_RS1_(ptr noundef nonnull align 8 dereferenceable(16) %0, ptr noundef %1, ptr noundef nonnull align 8 dereferenceable(976) %2) unnamed_addr #4 comdat align 2 {
  %4 = alloca ptr, align 8
  %5 = alloca ptr, align 8
  %6 = alloca ptr, align 8
  store ptr %0, ptr %4, align 8, !tbaa !122
  store ptr %1, ptr %5, align 8, !tbaa !51
  store ptr %2, ptr %6, align 8, !tbaa !12
  %7 = load ptr, ptr %4, align 8
  %8 = getelementptr inbounds nuw %class.obj_ref, ptr %7, i32 0, i32 0
  %9 = load ptr, ptr %5, align 8, !tbaa !51
  store ptr %9, ptr %8, align 8, !tbaa !124
  %10 = getelementptr inbounds nuw %class.obj_ref, ptr %7, i32 0, i32 1
  %11 = load ptr, ptr %6, align 8, !tbaa !12
  store ptr %11, ptr %10, align 8, !tbaa !12
  call void @_ZN7obj_refI4expr11ast_managerE7inc_refEv(ptr noundef nonnull align 8 dereferenceable(16) %7)
  ret void
}

; Function Attrs: mustprogress nounwind uwtable
define linkonce_odr hidden noundef ptr @_ZNK7obj_refI4expr11ast_managerEcvPS0_Ev(ptr noundef nonnull align 8 dereferenceable(16) %0) #5 comdat align 2 {
  %2 = alloca ptr, align 8
  store ptr %0, ptr %2, align 8, !tbaa !122
  %3 = load ptr, ptr %2, align 8
  %4 = getelementptr inbounds nuw %class.obj_ref, ptr %3, i32 0, i32 0
  %5 = load ptr, ptr %4, align 8, !tbaa !124
  ret ptr %5
}

; Function Attrs: mustprogress nounwind uwtable
define linkonce_odr hidden noundef ptr @_ZNK6vectorISt4pairI8rationalP3appELb1EjE3endEv(ptr noundef nonnull align 8 dereferenceable(8) %0) #5 comdat align 2 {
  %2 = alloca ptr, align 8
  store ptr %0, ptr %2, align 8, !tbaa !83
  %3 = load ptr, ptr %2, align 8
  %4 = getelementptr inbounds nuw %class.vector.31, ptr %3, i32 0, i32 0
  %5 = load ptr, ptr %4, align 8, !tbaa !85
  %6 = call noundef i32 @_ZNK6vectorISt4pairI8rationalP3appELb1EjE4sizeEv(ptr noundef nonnull align 8 dereferenceable(8) %3)
  %7 = zext i32 %6 to i64
  %8 = getelementptr inbounds nuw %"struct.std::pair", ptr %5, i64 %7
  ret ptr %8
}

; Function Attrs: mustprogress nounwind uwtable
define linkonce_odr hidden noundef ptr @_ZNK6vectorISt4pairI8rationalP3appELb1EjE5beginEv(ptr noundef nonnull align 8 dereferenceable(8) %0) #5 comdat align 2 {
  %2 = alloca ptr, align 8
  store ptr %0, ptr %2, align 8, !tbaa !83
  %3 = load ptr, ptr %2, align 8
  %4 = getelementptr inbounds nuw %class.vector.31, ptr %3, i32 0, i32 0
  %5 = load ptr, ptr %4, align 8, !tbaa !85
  ret ptr %5
}

; Function Attrs: mustprogress uwtable
define hidden void @_ZN6spacer40unsat_core_plugin_farkas_lemma_optimized26compute_linear_combinationERK6vectorISt4pairI8rationalP3appELb1EjE(ptr dead_on_unwind noalias writable sret(%class.obj_ref) align 8 %0, ptr noundef nonnull align 8 dereferenceable(32) %1, ptr noundef nonnull align 8 dereferenceable(8) %2) #4 align 2 personality ptr @__gxx_personality_v0 {
  %4 = alloca ptr, align 8
  %5 = alloca ptr, align 8
  %6 = alloca ptr, align 8
  %7 = alloca %"class.smt::farkas_util", align 8
  %8 = alloca ptr, align 8
  %9 = alloca ptr, align 8
  %10 = alloca ptr, align 8
  %11 = alloca i32, align 4
  %12 = alloca ptr, align 8
  %13 = alloca ptr, align 8
  %14 = alloca %class.obj_ref, align 8
  store ptr %0, ptr %4, align 8
  store ptr %1, ptr %5, align 8, !tbaa !147
  store ptr %2, ptr %6, align 8, !tbaa !83
  %15 = load ptr, ptr %5, align 8
  call void @llvm.lifetime.start.p0(i64 128, ptr %7) #3
  %16 = getelementptr inbounds nuw %"class.spacer::unsat_core_plugin", ptr %15, i32 0, i32 1
  %17 = load ptr, ptr %16, align 8, !tbaa !39
  call void @_ZN3smt11farkas_utilC1ER11ast_manager(ptr noundef nonnull align 8 dereferenceable(128) %7, ptr noundef nonnull align 8 dereferenceable(976) %17)
  call void @llvm.lifetime.start.p0(i64 8, ptr %8) #3
  %18 = load ptr, ptr %6, align 8, !tbaa !83
  store ptr %18, ptr %8, align 8, !tbaa !83
  call void @llvm.lifetime.start.p0(i64 8, ptr %9) #3
  %19 = load ptr, ptr %8, align 8, !tbaa !83
  %20 = invoke noundef ptr @_ZNK6vectorISt4pairI8rationalP3appELb1EjE5beginEv(ptr noundef nonnull align 8 dereferenceable(8) %19)
          to label %21 unwind label %30

21:                                               ; preds = %3
  store ptr %20, ptr %9, align 8, !tbaa !99
  call void @llvm.lifetime.start.p0(i64 8, ptr %12) #3
  %22 = load ptr, ptr %8, align 8, !tbaa !83
  %23 = invoke noundef ptr @_ZNK6vectorISt4pairI8rationalP3appELb1EjE3endEv(ptr noundef nonnull align 8 dereferenceable(8) %22)
          to label %24 unwind label %34

24:                                               ; preds = %21
  store ptr %23, ptr %12, align 8, !tbaa !99
  br label %25

25:                                               ; preds = %47, %24
  %26 = load ptr, ptr %9, align 8, !tbaa !99
  %27 = load ptr, ptr %12, align 8, !tbaa !99
  %28 = icmp ne ptr %26, %27
  br i1 %28, label %38, label %29

29:                                               ; preds = %25
  call void @llvm.lifetime.end.p0(i64 8, ptr %12) #3
  call void @llvm.lifetime.end.p0(i64 8, ptr %9) #3
  call void @llvm.lifetime.end.p0(i64 8, ptr %8) #3
  br label %56

30:                                               ; preds = %3
  %31 = landingpad { ptr, i32 }
          cleanup
  %32 = extractvalue { ptr, i32 } %31, 0
  store ptr %32, ptr %10, align 8
  %33 = extractvalue { ptr, i32 } %31, 1
  store i32 %33, ptr %11, align 4
  br label %55

34:                                               ; preds = %21
  %35 = landingpad { ptr, i32 }
          cleanup
  %36 = extractvalue { ptr, i32 } %35, 0
  store ptr %36, ptr %10, align 8
  %37 = extractvalue { ptr, i32 } %35, 1
  store i32 %37, ptr %11, align 4
  br label %54

38:                                               ; preds = %25
  call void @llvm.lifetime.start.p0(i64 8, ptr %13) #3
  %39 = load ptr, ptr %9, align 8, !tbaa !99
  store ptr %39, ptr %13, align 8, !tbaa !99
  %40 = load ptr, ptr %13, align 8, !tbaa !99
  %41 = getelementptr inbounds nuw %"struct.std::pair", ptr %40, i32 0, i32 0
  %42 = load ptr, ptr %13, align 8, !tbaa !99
  %43 = getelementptr inbounds nuw %"struct.std::pair", ptr %42, i32 0, i32 1
  %44 = load ptr, ptr %43, align 8, !tbaa !129
  %45 = invoke noundef zeroext i1 @_ZN3smt11farkas_util3addERK8rationalP3app(ptr noundef nonnull align 8 dereferenceable(128) %7, ptr noundef nonnull align 8 dereferenceable(32) %41, ptr noundef %44)
          to label %46 unwind label %50

46:                                               ; preds = %38
  call void @llvm.lifetime.end.p0(i64 8, ptr %13) #3
  br label %47

47:                                               ; preds = %46
  %48 = load ptr, ptr %9, align 8, !tbaa !99
  %49 = getelementptr inbounds nuw %"struct.std::pair", ptr %48, i32 1
  store ptr %49, ptr %9, align 8, !tbaa !99
  br label %25

50:                                               ; preds = %38
  %51 = landingpad { ptr, i32 }
          cleanup
  %52 = extractvalue { ptr, i32 } %51, 0
  store ptr %52, ptr %10, align 8
  %53 = extractvalue { ptr, i32 } %51, 1
  store i32 %53, ptr %11, align 4
  call void @llvm.lifetime.end.p0(i64 8, ptr %13) #3
  br label %54

54:                                               ; preds = %50, %34
  call void @llvm.lifetime.end.p0(i64 8, ptr %12) #3
  br label %55

55:                                               ; preds = %54, %30
  call void @llvm.lifetime.end.p0(i64 8, ptr %9) #3
  call void @llvm.lifetime.end.p0(i64 8, ptr %8) #3
  br label %76

56:                                               ; preds = %29
  call void @llvm.lifetime.start.p0(i64 16, ptr %14) #3
  invoke void @_ZN3smt11farkas_util3getEv(ptr dead_on_unwind writable sret(%class.obj_ref) align 8 %14, ptr noundef nonnull align 8 dereferenceable(128) %7)
          to label %57 unwind label %67

57:                                               ; preds = %56
  %58 = getelementptr inbounds nuw %"class.spacer::unsat_core_plugin", ptr %15, i32 0, i32 1
  %59 = load ptr, ptr %58, align 8, !tbaa !39
  %60 = invoke noundef ptr @_ZNK7obj_refI4expr11ast_managerEcvPS0_Ev(ptr noundef nonnull align 8 dereferenceable(16) %14)
          to label %61 unwind label %71

61:                                               ; preds = %57
  %62 = invoke noundef ptr @_Z6mk_notR11ast_managerP4expr(ptr noundef nonnull align 8 dereferenceable(976) %59, ptr noundef %60)
          to label %63 unwind label %71

63:                                               ; preds = %61
  %64 = getelementptr inbounds nuw %"class.spacer::unsat_core_plugin", ptr %15, i32 0, i32 1
  %65 = load ptr, ptr %64, align 8, !tbaa !39
  invoke void @_ZN7obj_refI4expr11ast_managerEC2EPS0_RS1_(ptr noundef nonnull align 8 dereferenceable(16) %0, ptr noundef %62, ptr noundef nonnull align 8 dereferenceable(976) %65)
          to label %66 unwind label %71

66:                                               ; preds = %63
  call void @_ZN7obj_refI4expr11ast_managerED2Ev(ptr noundef nonnull align 8 dereferenceable(16) %14) #3
  call void @llvm.lifetime.end.p0(i64 16, ptr %14) #3
  call void @_ZN3smt11farkas_utilD2Ev(ptr noundef nonnull align 8 dereferenceable(128) %7) #3
  call void @llvm.lifetime.end.p0(i64 128, ptr %7) #3
  ret void

67:                                               ; preds = %56
  %68 = landingpad { ptr, i32 }
          cleanup
  %69 = extractvalue { ptr, i32 } %68, 0
  store ptr %69, ptr %10, align 8
  %70 = extractvalue { ptr, i32 } %68, 1
  store i32 %70, ptr %11, align 4
  br label %75

71:                                               ; preds = %63, %61, %57
  %72 = landingpad { ptr, i32 }
          cleanup
  %73 = extractvalue { ptr, i32 } %72, 0
  store ptr %73, ptr %10, align 8
  %74 = extractvalue { ptr, i32 } %72, 1
  store i32 %74, ptr %11, align 4
  call void @_ZN7obj_refI4expr11ast_managerED2Ev(ptr noundef nonnull align 8 dereferenceable(16) %14) #3
  br label %75

75:                                               ; preds = %71, %67
  call void @llvm.lifetime.end.p0(i64 16, ptr %14) #3
  br label %76

76:                                               ; preds = %75, %55
  call void @_ZN3smt11farkas_utilD2Ev(ptr noundef nonnull align 8 dereferenceable(128) %7) #3
  call void @llvm.lifetime.end.p0(i64 128, ptr %7) #3
  br label %77

77:                                               ; preds = %76
  %78 = load ptr, ptr %10, align 8
  %79 = load i32, ptr %11, align 4
  %80 = insertvalue { ptr, i32 } poison, ptr %78, 0
  %81 = insertvalue { ptr, i32 } %80, i32 %79, 1
  resume { ptr, i32 } %81
}