; Function Attrs: mustprogress uwtable
define hidden void @_ZN6spacer40unsat_core_plugin_farkas_lemma_optimized26compute_linear_combinationERK6vectorISt4pairI8rationalP3appELb1EjE(ptr dead_on_unwind noalias writable writeonly sret(%class.obj_ref) align 8 captures(none) %0, ptr noundef nonnull readonly align 8 captures(none) dereferenceable(32) %1, ptr noundef nonnull readonly align 8 captures(none) dereferenceable(8) %2) local_unnamed_addr #4 align 2 personality ptr @__gxx_personality_v0 {
  %4 = alloca %"class.smt::farkas_util", align 8
  %5 = alloca %class.obj_ref, align 8
  call void @llvm.lifetime.start.p0(i64 128, ptr nonnull %4) #23
  %6 = getelementptr inbounds nuw i8, ptr %1, i64 8
  %7 = load ptr, ptr %6, align 8, !tbaa !39
  call void @_ZN3smt11farkas_utilC1ER11ast_manager(ptr noundef nonnull align 8 dereferenceable(128) %4, ptr noundef nonnull align 8 dereferenceable(976) %7)
  %8 = load ptr, ptr %2, align 8, !tbaa !127
  %9 = icmp eq ptr %8, null
  br i1 %9, label %._crit_edge, label %_ZNK6vectorISt4pairI8rationalP3appELb1EjE3endEv.exit

_ZNK6vectorISt4pairI8rationalP3appELb1EjE3endEv.exit: ; preds = %3
  %10 = getelementptr inbounds i8, ptr %8, i64 -4
  %11 = load i32, ptr %10, align 4, !tbaa !160
  %12 = zext i32 %11 to i64
  %13 = getelementptr inbounds nuw %"struct.std::pair", ptr %8, i64 %12
  %.not18 = icmp eq i32 %11, 0
  br i1 %.not18, label %._crit_edge, label %.lr.ph

._crit_edge:                                      ; preds = %17, %3, %_ZNK6vectorISt4pairI8rationalP3appELb1EjE3endEv.exit
  call void @llvm.lifetime.start.p0(i64 16, ptr nonnull %5) #23
  invoke void @_ZN3smt11farkas_util3getEv(ptr dead_on_unwind nonnull writable sret(%class.obj_ref) align 8 %5, ptr noundef nonnull align 8 dereferenceable(128) %4)
          to label %21 unwind label %43

.lr.ph:                                           ; preds = %_ZNK6vectorISt4pairI8rationalP3appELb1EjE3endEv.exit, %17
  %.019 = phi ptr [ %18, %17 ], [ %8, %_ZNK6vectorISt4pairI8rationalP3appELb1EjE3endEv.exit ]
  %14 = getelementptr inbounds nuw i8, ptr %.019, i64 32
  %15 = load ptr, ptr %14, align 8, !tbaa !156
  %16 = invoke noundef zeroext i1 @_ZN3smt11farkas_util3addERK8rationalP3app(ptr noundef nonnull align 8 dereferenceable(128) %4, ptr noundef nonnull align 8 dereferenceable(32) %.019, ptr noundef %15)
          to label %17 unwind label %19

17:                                               ; preds = %.lr.ph
  %18 = getelementptr inbounds nuw i8, ptr %.019, i64 40
  %.not = icmp eq ptr %18, %13
  br i1 %.not, label %._crit_edge, label %.lr.ph

19:                                               ; preds = %.lr.ph
  %20 = landingpad { ptr, i32 }
          cleanup
  br label %48

21:                                               ; preds = %._crit_edge
  %22 = load ptr, ptr %6, align 8, !tbaa !39
  %23 = load ptr, ptr %5, align 8, !tbaa !182
  %24 = invoke noundef ptr @_Z6mk_notR11ast_managerP4expr(ptr noundef nonnull align 8 dereferenceable(976) %22, ptr noundef %23)
          to label %25 unwind label %45

25:                                               ; preds = %21
  %26 = load ptr, ptr %6, align 8, !tbaa !39
  store ptr %24, ptr %0, align 8, !tbaa !182
  %27 = getelementptr inbounds nuw i8, ptr %0, i64 8
  store ptr %26, ptr %27, align 8, !tbaa !30
  %.not.i.i = icmp eq ptr %24, null
  br i1 %.not.i.i, label %_ZN7obj_refI4expr11ast_managerEC2EPS0_RS1_.exit, label %_ZN11ast_manager7inc_refEP3ast.exit.i.i

_ZN11ast_manager7inc_refEP3ast.exit.i.i:          ; preds = %25
  %28 = getelementptr inbounds nuw i8, ptr %24, i64 8
  %29 = load i32, ptr %28, align 4, !tbaa !185
  %30 = add i32 %29, 1
  store i32 %30, ptr %28, align 4, !tbaa !185
  br label %_ZN7obj_refI4expr11ast_managerEC2EPS0_RS1_.exit

_ZN7obj_refI4expr11ast_managerEC2EPS0_RS1_.exit:  ; preds = %_ZN11ast_manager7inc_refEP3ast.exit.i.i, %25
  %31 = load ptr, ptr %5, align 8, !tbaa !182
  %.not.i.i17 = icmp eq ptr %31, null
  br i1 %.not.i.i17, label %_ZN7obj_refI4expr11ast_managerED2Ev.exit, label %32

32:                                               ; preds = %_ZN7obj_refI4expr11ast_managerEC2EPS0_RS1_.exit
  %33 = getelementptr inbounds nuw i8, ptr %5, i64 8
  %34 = load ptr, ptr %33, align 8, !tbaa !186
  %35 = getelementptr inbounds nuw i8, ptr %31, i64 8
  %36 = load i32, ptr %35, align 4, !tbaa !185
  %37 = add i32 %36, -1
  store i32 %37, ptr %35, align 4, !tbaa !185
  %38 = icmp eq i32 %37, 0
  br i1 %38, label %39, label %_ZN7obj_refI4expr11ast_managerED2Ev.exit

39:                                               ; preds = %32
  invoke void @_ZN11ast_manager11delete_nodeEP3ast(ptr noundef nonnull align 8 dereferenceable(976) %34, ptr noundef nonnull %31)
          to label %_ZN7obj_refI4expr11ast_managerED2Ev.exit unwind label %40

40:                                               ; preds = %39
  %41 = landingpad { ptr, i32 }
          catch ptr null
  %42 = extractvalue { ptr, i32 } %41, 0
  call void @__clang_call_terminate(ptr %42) #24
  unreachable

_ZN7obj_refI4expr11ast_managerED2Ev.exit:         ; preds = %_ZN7obj_refI4expr11ast_managerEC2EPS0_RS1_.exit, %32, %39
  call void @llvm.lifetime.end.p0(i64 16, ptr nonnull %5) #23
  call void @_ZN3smt11farkas_utilD2Ev(ptr noundef nonnull align 8 dereferenceable(128) %4) #23
  call void @llvm.lifetime.end.p0(i64 128, ptr nonnull %4) #23
  ret void

43:                                               ; preds = %._crit_edge
  %44 = landingpad { ptr, i32 }
          cleanup
  br label %47

45:                                               ; preds = %21
  %46 = landingpad { ptr, i32 }
          cleanup
  call void @_ZN7obj_refI4expr11ast_managerED2Ev(ptr noundef nonnull align 8 dereferenceable(16) %5) #23
  br label %47

47:                                               ; preds = %45, %43
  %.pn = phi { ptr, i32 } [ %46, %45 ], [ %44, %43 ]
  call void @llvm.lifetime.end.p0(i64 16, ptr nonnull %5) #23
  br label %48

48:                                               ; preds = %47, %19
  %.pn15 = phi { ptr, i32 } [ %20, %19 ], [ %.pn, %47 ]
  call void @_ZN3smt11farkas_utilD2Ev(ptr noundef nonnull align 8 dereferenceable(128) %4) #23
  call void @llvm.lifetime.end.p0(i64 128, ptr nonnull %4) #23
  resume { ptr, i32 } %.pn15
}